target datalayout = "e-m:e-p270:32:32-p271:32:32-p272:64:64-i64:64-i128:128-f80:128-n8:16:32:64-S128"
target triple = "x86_64-pc-linux-gnu"

%struct.BOX = type { %struct.Point, %struct.Point }
%struct.Point = type { double, double }

; Function Attrs: inlinehint nounwind uwtable
define internal double @float8_mul(double noundef %0, double noundef %1) #2 {
  %3 = alloca double, align 8
  %4 = alloca double, align 8
  %5 = alloca double, align 8
  store double %0, ptr %3, align 8
  store double %1, ptr %4, align 8
  call void @llvm.lifetime.start.p0(i64 8, ptr %5) #10
  %6 = load double, ptr %3, align 8
  %7 = load double, ptr %4, align 8
  %8 = fmul double %6, %7
  store double %8, ptr %5, align 8
  %9 = load double, ptr %5, align 8
  %10 = call i1 @llvm.is.fpclass.f64(double %9, i32 516)
  %11 = zext i1 %10 to i32
  %12 = icmp ne i32 %11, 0
  %13 = zext i1 %12 to i32
  %14 = sext i32 %13 to i64
  %15 = call i64 @llvm.expect.i64(i64 %14, i64 0)
  %16 = icmp ne i64 %15, 0
  br i1 %16, label %17, label %24

17:                                               ; preds = %2
  %18 = load double, ptr %3, align 8
  %19 = call i1 @llvm.is.fpclass.f64(double %18, i32 516)
  br i1 %19, label %24, label %20

20:                                               ; preds = %17
  %21 = load double, ptr %4, align 8
  %22 = call i1 @llvm.is.fpclass.f64(double %21, i32 516)
  br i1 %22, label %24, label %23

23:                                               ; preds = %20
  call void @float_overflow_error() #12
  unreachable

24:                                               ; preds = %20, %17, %2
  %25 = load double, ptr %5, align 8
  %26 = fcmp oeq double %25, 0.000000e+00
  %27 = zext i1 %26 to i32
  %28 = icmp ne i32 %27, 0
  %29 = zext i1 %28 to i32
  %30 = sext i32 %29 to i64
  %31 = call i64 @llvm.expect.i64(i64 %30, i64 0)
  %32 = icmp ne i64 %31, 0
  br i1 %32, label %33, label %40

33:                                               ; preds = %24
  %34 = load double, ptr %3, align 8
  %35 = fcmp une double %34, 0.000000e+00
  br i1 %35, label %36, label %40

36:                                               ; preds = %33
  %37 = load double, ptr %4, align 8
  %38 = fcmp une double %37, 0.000000e+00
  br i1 %38, label %39, label %40

39:                                               ; preds = %36
  call void @float_underflow_error() #12
  unreachable

40:                                               ; preds = %36, %33, %24
  %41 = load double, ptr %5, align 8
  call void @llvm.lifetime.end.p0(i64 8, ptr %5) #10
  ret double %41
}

; Function Attrs: inlinehint nounwind uwtable
define internal double @float8_mi(double noundef %0, double noundef %1) #2 {
  %3 = alloca double, align 8
  %4 = alloca double, align 8
  %5 = alloca double, align 8
  store double %0, ptr %3, align 8
  store double %1, ptr %4, align 8
  call void @llvm.lifetime.start.p0(i64 8, ptr %5) #10
  %6 = load double, ptr %3, align 8
  %7 = load double, ptr %4, align 8
  %8 = fsub double %6, %7
  store double %8, ptr %5, align 8
  %9 = load double, ptr %5, align 8
  %10 = call i1 @llvm.is.fpclass.f64(double %9, i32 516)
  %11 = zext i1 %10 to i32
  %12 = icmp ne i32 %11, 0
  %13 = zext i1 %12 to i32
  %14 = sext i32 %13 to i64
  %15 = call i64 @llvm.expect.i64(i64 %14, i64 0)
  %16 = icmp ne i64 %15, 0
  br i1 %16, label %17, label %24

17:                                               ; preds = %2
  %18 = load double, ptr %3, align 8
  %19 = call i1 @llvm.is.fpclass.f64(double %18, i32 516)
  br i1 %19, label %24, label %20

20:                                               ; preds = %17
  %21 = load double, ptr %4, align 8
  %22 = call i1 @llvm.is.fpclass.f64(double %21, i32 516)
  br i1 %22, label %24, label %23

23:                                               ; preds = %20
  call void @float_overflow_error() #12
  unreachable

24:                                               ; preds = %20, %17, %2
  %25 = load double, ptr %5, align 8
  call void @llvm.lifetime.end.p0(i64 8, ptr %5) #10
  ret double %25
}

; Function Attrs: inlinehint nounwind uwtable
define internal double @get_float8_infinity() #2 {
  ret double 0x7FF0000000000000
}

; Function Attrs: inlinehint nounwind uwtable
define internal zeroext i1 @float8_le(double noundef %0, double noundef %1) #2 {
  %3 = alloca double, align 8
  %4 = alloca double, align 8
  store double %0, ptr %3, align 8
  store double %1, ptr %4, align 8
  %5 = load double, ptr %4, align 8
  %6 = call i1 @llvm.is.fpclass.f64(double %5, i32 3)
  br i1 %6, label %16, label %7

7:                                                ; preds = %2
  %8 = load double, ptr %3, align 8
  %9 = call i1 @llvm.is.fpclass.f64(double %8, i32 3)
  br i1 %9, label %14, label %10

10:                                               ; preds = %7
  %11 = load double, ptr %3, align 8
  %12 = load double, ptr %4, align 8
  %13 = fcmp ole double %11, %12
  br label %14

14:                                               ; preds = %10, %7
  %15 = phi i1 [ false, %7 ], [ %13, %10 ]
  br label %16

16:                                               ; preds = %14, %2
  %17 = phi i1 [ true, %2 ], [ %15, %14 ]
  ret i1 %17
}

; Function Attrs: nounwind uwtable
define internal double @size_box(ptr noundef %0) #0 {
  %2 = alloca double, align 8
  %3 = alloca ptr, align 8
  store ptr %0, ptr %3, align 8
  %4 = load ptr, ptr %3, align 8
  %5 = getelementptr inbounds nuw %struct.BOX, ptr %4, i32 0, i32 0
  %6 = getelementptr inbounds nuw %struct.Point, ptr %5, i32 0, i32 0
  %7 = load double, ptr %6, align 8
  %8 = load ptr, ptr %3, align 8
  %9 = getelementptr inbounds nuw %struct.BOX, ptr %8, i32 0, i32 1
  %10 = getelementptr inbounds nuw %struct.Point, ptr %9, i32 0, i32 0
  %11 = load double, ptr %10, align 8
  %12 = call zeroext i1 @float8_le(double noundef %7, double noundef %11)
  br i1 %12, label %23, label %13

13:                                               ; preds = %1
  %14 = load ptr, ptr %3, align 8
  %15 = getelementptr inbounds nuw %struct.BOX, ptr %14, i32 0, i32 0
  %16 = getelementptr inbounds nuw %struct.Point, ptr %15, i32 0, i32 1
  %17 = load double, ptr %16, align 8
  %18 = load ptr, ptr %3, align 8
  %19 = getelementptr inbounds nuw %struct.BOX, ptr %18, i32 0, i32 1
  %20 = getelementptr inbounds nuw %struct.Point, ptr %19, i32 0, i32 1
  %21 = load double, ptr %20, align 8
  %22 = call zeroext i1 @float8_le(double noundef %17, double noundef %21)
  br i1 %22, label %23, label %24

23:                                               ; preds = %13, %1
  store double 0.000000e+00, ptr %2, align 8
  br label %58

24:                                               ; preds = %13
  %25 = load ptr, ptr %3, align 8
  %26 = getelementptr inbounds nuw %struct.BOX, ptr %25, i32 0, i32 0
  %27 = getelementptr inbounds nuw %struct.Point, ptr %26, i32 0, i32 0
  %28 = load double, ptr %27, align 8
  %29 = call i1 @llvm.is.fpclass.f64(double %28, i32 3)
  br i1 %29, label %36, label %30

30:                                               ; preds = %24
  %31 = load ptr, ptr %3, align 8
  %32 = getelementptr inbounds nuw %struct.BOX, ptr %31, i32 0, i32 0
  %33 = getelementptr inbounds nuw %struct.Point, ptr %32, i32 0, i32 1
  %34 = load double, ptr %33, align 8
  %35 = call i1 @llvm.is.fpclass.f64(double %34, i32 3)
  br i1 %35, label %36, label %38

36:                                               ; preds = %30, %24
  %37 = call double @get_float8_infinity()
  store double %37, ptr %2, align 8
  br label %58

38:                                               ; preds = %30
  %39 = load ptr, ptr %3, align 8
  %40 = getelementptr inbounds nuw %struct.BOX, ptr %39, i32 0, i32 0
  %41 = getelementptr inbounds nuw %struct.Point, ptr %40, i32 0, i32 0
  %42 = load double, ptr %41, align 8
  %43 = load ptr, ptr %3, align 8
  %44 = getelementptr inbounds nuw %struct.BOX, ptr %43, i32 0, i32 1
  %45 = getelementptr inbounds nuw %struct.Point, ptr %44, i32 0, i32 0
  %46 = load double, ptr %45, align 8
  %47 = call double @float8_mi(double noundef %42, double noundef %46)
  %48 = load ptr, ptr %3, align 8
  %49 = getelementptr inbounds nuw %struct.BOX, ptr %48, i32 0, i32 0
  %50 = getelementptr inbounds nuw %struct.Point, ptr %49, i32 0, i32 1
  %51 = load double, ptr %50, align 8
  %52 = load ptr, ptr %3, align 8
  %53 = getelementptr inbounds nuw %struct.BOX, ptr %52, i32 0, i32 1
  %54 = getelementptr inbounds nuw %struct.Point, ptr %53, i32 0, i32 1
  %55 = load double, ptr %54, align 8
  %56 = call double @float8_mi(double noundef %51, double noundef %55)
  %57 = call double @float8_mul(double noundef %47, double noundef %56)
  store double %57, ptr %2, align 8
  br label %58

58:                                               ; preds = %38, %36, %23
  %59 = load double, ptr %2, align 8
  ret double %59
}