; Function Attrs: nounwind uwtable
define internal fastcc double @size_box(ptr noundef readonly captures(none) %0) unnamed_addr #0 {
  %2 = load double, ptr %0, align 8
  %3 = getelementptr inbounds nuw i8, ptr %0, i64 16
  %4 = load double, ptr %3, align 8
  %5 = fcmp uno double %4, 0.000000e+00
  %6 = fcmp ole double %2, %4
  %7 = or i1 %5, %6
  br i1 %7, label %float8_mul.exit, label %8

8:                                                ; preds = %1
  %9 = getelementptr inbounds nuw i8, ptr %0, i64 8
  %10 = load double, ptr %9, align 8
  %11 = getelementptr inbounds nuw i8, ptr %0, i64 24
  %12 = load double, ptr %11, align 8
  %13 = fcmp uno double %12, 0.000000e+00
  %14 = fcmp ole double %10, %12
  %15 = or i1 %13, %14
  br i1 %15, label %float8_mul.exit, label %16

16:                                               ; preds = %8
  %or.cond = fcmp uno double %2, %10
  br i1 %or.cond, label %float8_mul.exit, label %17

17:                                               ; preds = %16
  %18 = fsub double %2, %4
  %19 = tail call double @llvm.fabs.f64(double %18)
  %20 = fcmp oeq double %19, 0x7FF0000000000000
  br i1 %20, label %21, label %float8_mi.exit, !prof !6

21:                                               ; preds = %17
  %22 = tail call double @llvm.fabs.f64(double %2)
  %23 = fcmp oeq double %22, 0x7FF0000000000000
  %24 = tail call double @llvm.fabs.f64(double %4)
  %25 = fcmp oeq double %24, 0x7FF0000000000000
  %or.cond.i = or i1 %23, %25
  br i1 %or.cond.i, label %float8_mi.exit, label %26

26:                                               ; preds = %21
  tail call void @float_overflow_error() #17
  unreachable

float8_mi.exit:                                   ; preds = %17, %21
  %27 = fsub double %10, %12
  %28 = tail call double @llvm.fabs.f64(double %27)
  %29 = fcmp oeq double %28, 0x7FF0000000000000
  br i1 %29, label %30, label %float8_mi.exit12, !prof !6

30:                                               ; preds = %float8_mi.exit
  %31 = tail call double @llvm.fabs.f64(double %10)
  %32 = fcmp oeq double %31, 0x7FF0000000000000
  %33 = tail call double @llvm.fabs.f64(double %12)
  %34 = fcmp oeq double %33, 0x7FF0000000000000
  %or.cond.i11 = or i1 %32, %34
  br i1 %or.cond.i11, label %float8_mi.exit12, label %35

35:                                               ; preds = %30
  tail call void @float_overflow_error() #17
  unreachable

float8_mi.exit12:                                 ; preds = %float8_mi.exit, %30
  %36 = fmul double %18, %27
  %37 = tail call double @llvm.fabs.f64(double %36)
  %38 = fcmp oeq double %37, 0x7FF0000000000000
  br i1 %38, label %39, label %41, !prof !6

39:                                               ; preds = %float8_mi.exit12
  %or.cond11.i = or i1 %20, %29
  br i1 %or.cond11.i, label %41, label %40

40:                                               ; preds = %39
  tail call void @float_overflow_error() #17
  unreachable

41:                                               ; preds = %39, %float8_mi.exit12
  %42 = fcmp oeq double %36, 0.000000e+00
  br i1 %42, label %43, label %float8_mul.exit, !prof !6

43:                                               ; preds = %41
  %44 = fcmp une double %18, 0.000000e+00
  %45 = fcmp une double %27, 0.000000e+00
  %or.cond.i13 = and i1 %44, %45
  br i1 %or.cond.i13, label %46, label %float8_mul.exit

46:                                               ; preds = %43
  tail call void @float_underflow_error() #17
  unreachable

float8_mul.exit:                                  ; preds = %43, %41, %16, %1, %8
  %.0 = phi double [ 0.000000e+00, %8 ], [ 0.000000e+00, %1 ], [ 0x7FF0000000000000, %16 ], [ %36, %41 ], [ %36, %43 ]
  ret double %.0
}